target datalayout = "e-m:e-p270:32:32-p271:32:32-p272:64:64-i64:64-i128:128-f80:128-n8:16:32:64-S128"
target triple = "x86_64-pc-linux-gnu"

%struct.diag_stats = type { i32, i32, i32, i32, i32, i32, i32, [6 x i32], i32, i32, i32, i32, i32, i32, i32, i32, i32, i32, i32, i32, i32, i32, i32, i32, i64, i32, i32, [6 x i32], i32, i32, i32, i32, i32, i32, i64, i32 }
%struct.job_record = type { i32, ptr, ptr, ptr, ptr, i16, i32, i32, i32, ptr, i32, ptr, ptr, i16, ptr, double, i64, ptr, ptr, ptr, ptr, ptr, ptr, i32, ptr, i32, i64, i64, i32, i32, ptr, i16, i64, i64, i8, i32, ptr, ptr, ptr, ptr, ptr, ptr, ptr, ptr, i32, ptr, ptr, i32, ptr, i32, ptr, i32, ptr, i32, ptr, ptr, ptr, ptr, ptr, ptr, i32, i16, i64, ptr, ptr, ptr, ptr, %struct.acct_policy_limit_set_t, i16, ptr, ptr, ptr, ptr, ptr, i32, ptr, ptr, ptr, ptr, ptr, i32, i32, ptr, ptr, ptr, i16, ptr, ptr, i8, ptr, ptr, i64, i64, i8, i32, i32, i8, i32, ptr, i32, i64, i32, ptr, ptr, ptr, i8, i16, i64, i32, ptr, ptr, ptr, ptr, ptr, i16, i32, ptr, ptr, ptr, ptr, i32, ptr, i32, i16, i64, ptr, i32, i32, ptr, i64, ptr, ptr, i64, i32, i32, i64, i32, i32, ptr, ptr, ptr, ptr, ptr, ptr, ptr, ptr, ptr, ptr, ptr, ptr, i32, ptr, i16, i16, i16, i16, ptr, i32, i32, i8, i64 }
%struct.acct_policy_limit_set_t = type { i16, i16, ptr }
%struct.job_array_struct = type { i32, ptr, ptr, i32, i32, i32, i32, i32, i32, i32 }

@.str.5 = private unnamed_addr constant [27 x i8] c"select_g_job_fini(%pJ): %m\00", align 1
@slurmctld_diag_stats = external global %struct.diag_stats, align 8
@acct_db_conn = external global ptr, align 8
@.str.63 = private unnamed_addr constant [43 x i8] c"%s: Could not find meta job record for %pJ\00", align 1
@__func__._first_array_task = private unnamed_addr constant [18 x i8] c"_first_array_task\00", align 1

; Function Attrs: nounwind uwtable
define internal zeroext i1 @_first_array_task(ptr noundef %0) #0 {
  %2 = alloca i1, align 1
  %3 = alloca ptr, align 8
  %4 = alloca ptr, align 8
  %5 = alloca i32, align 4
  store ptr %0, ptr %3, align 8
  call void @llvm.lifetime.start.p0(i64 8, ptr %4) #8
  %6 = load ptr, ptr %3, align 8
  %7 = getelementptr inbounds nuw %struct.job_record, ptr %6, i32 0, i32 8
  %8 = load i32, ptr %7, align 4
  %9 = icmp eq i32 %8, -2
  br i1 %9, label %10, label %11

10:                                               ; preds = %1
  store i1 true, ptr %2, align 1
  store i32 1, ptr %5, align 4
  br label %42

11:                                               ; preds = %1
  %12 = load ptr, ptr %3, align 8
  %13 = getelementptr inbounds nuw %struct.job_record, ptr %12, i32 0, i32 7
  %14 = load i32, ptr %13, align 8
  %15 = call ptr @find_job_record(i32 noundef %14)
  store ptr %15, ptr %4, align 8
  %16 = load ptr, ptr %4, align 8
  %17 = icmp ne ptr %16, null
  br i1 %17, label %18, label %23

18:                                               ; preds = %11
  %19 = load ptr, ptr %4, align 8
  %20 = getelementptr inbounds nuw %struct.job_record, ptr %19, i32 0, i32 9
  %21 = load ptr, ptr %20, align 8
  %22 = icmp ne ptr %21, null
  br i1 %22, label %26, label %23

23:                                               ; preds = %18, %11
  %24 = load ptr, ptr %3, align 8
  %25 = call i32 (ptr, ...) @error(ptr noundef @.str.63, ptr noundef @__func__._first_array_task, ptr noundef %24)
  store i1 true, ptr %2, align 1
  store i32 1, ptr %5, align 4
  br label %42

26:                                               ; preds = %18
  %27 = load ptr, ptr %4, align 8
  %28 = getelementptr inbounds nuw %struct.job_record, ptr %27, i32 0, i32 9
  %29 = load ptr, ptr %28, align 8
  %30 = getelementptr inbounds nuw %struct.job_array_struct, ptr %29, i32 0, i32 5
  %31 = load i32, ptr %30, align 8
  %32 = icmp eq i32 %31, 1
  br i1 %32, label %33, label %41

33:                                               ; preds = %26
  %34 = load ptr, ptr %4, align 8
  %35 = getelementptr inbounds nuw %struct.job_record, ptr %34, i32 0, i32 9
  %36 = load ptr, ptr %35, align 8
  %37 = getelementptr inbounds nuw %struct.job_array_struct, ptr %36, i32 0, i32 9
  %38 = load i32, ptr %37, align 8
  %39 = icmp eq i32 %38, 0
  br i1 %39, label %40, label %41

40:                                               ; preds = %33
  store i1 true, ptr %2, align 1
  store i32 1, ptr %5, align 4
  br label %42

41:                                               ; preds = %33, %26
  store i1 false, ptr %2, align 1
  store i32 1, ptr %5, align 4
  br label %42

42:                                               ; preds = %41, %40, %23, %10
  call void @llvm.lifetime.end.p0(i64 8, ptr %4) #8
  %43 = load i1, ptr %2, align 1
  ret i1 %43
}

; Function Attrs: nounwind uwtable
define internal void @_end_null_job(ptr noundef %0) #0 {
  %2 = alloca ptr, align 8
  %3 = alloca i64, align 8
  store ptr %0, ptr %2, align 8
  call void @llvm.lifetime.start.p0(i64 8, ptr %3) #8
  %4 = call i64 @time(ptr noundef null) #8
  store i64 %4, ptr %3, align 8
  %5 = load ptr, ptr %2, align 8
  %6 = getelementptr inbounds nuw %struct.job_record, ptr %5, i32 0, i32 35
  store i32 0, ptr %6, align 4
  %7 = load ptr, ptr %2, align 8
  %8 = getelementptr inbounds nuw %struct.job_record, ptr %7, i32 0, i32 41
  %9 = load ptr, ptr %8, align 8
  call void @gres_stepmgr_job_clear_alloc(ptr noundef %9)
  %10 = load ptr, ptr %2, align 8
  %11 = getelementptr inbounds nuw %struct.job_record, ptr %10, i32 0, i32 42
  %12 = load ptr, ptr %11, align 8
  call void @gres_stepmgr_job_clear_alloc(ptr noundef %12)
  br label %13

13:                                               ; preds = %1
  %14 = load ptr, ptr %2, align 8
  %15 = getelementptr inbounds nuw %struct.job_record, ptr %14, i32 0, i32 43
  %16 = load ptr, ptr %15, align 8
  %17 = icmp ne ptr %16, null
  br i1 %17, label %18, label %22

18:                                               ; preds = %13
  %19 = load ptr, ptr %2, align 8
  %20 = getelementptr inbounds nuw %struct.job_record, ptr %19, i32 0, i32 43
  %21 = load ptr, ptr %20, align 8
  call void @list_destroy(ptr noundef %21)
  br label %22

22:                                               ; preds = %18, %13
  %23 = load ptr, ptr %2, align 8
  %24 = getelementptr inbounds nuw %struct.job_record, ptr %23, i32 0, i32 43
  store ptr null, ptr %24, align 8
  br label %25

25:                                               ; preds = %22
  br label %26

26:                                               ; preds = %25
  %27 = load ptr, ptr %2, align 8
  call void @job_state_set(ptr noundef %27, i32 noundef 1)
  %28 = load ptr, ptr %2, align 8
  %29 = getelementptr inbounds nuw %struct.job_record, ptr %28, i32 0, i32 16
  %30 = load i64, ptr %29, align 8
  %31 = or i64 %30, 1048576
  store i64 %31, ptr %29, align 8
  br label %32

32:                                               ; preds = %26
  %33 = load ptr, ptr %2, align 8
  %34 = getelementptr inbounds nuw %struct.job_record, ptr %33, i32 0, i32 77
  %35 = load ptr, ptr %34, align 8
  %36 = icmp ne ptr %35, null
  br i1 %36, label %37, label %40

37:                                               ; preds = %32
  %38 = load ptr, ptr %2, align 8
  %39 = getelementptr inbounds nuw %struct.job_record, ptr %38, i32 0, i32 77
  call void @slurm_bit_free(ptr noundef %39)
  br label %40

40:                                               ; preds = %37, %32
  %41 = load ptr, ptr %2, align 8
  %42 = getelementptr inbounds nuw %struct.job_record, ptr %41, i32 0, i32 77
  store ptr null, ptr %42, align 8
  br label %43

43:                                               ; preds = %40
  br label %44

44:                                               ; preds = %43
  %45 = load ptr, ptr %2, align 8
  %46 = getelementptr inbounds nuw %struct.job_record, ptr %45, i32 0, i32 75
  call void @slurm_xfree(ptr noundef %46)
  %47 = load ptr, ptr %2, align 8
  %48 = getelementptr inbounds nuw %struct.job_record, ptr %47, i32 0, i32 117
  call void @slurm_xfree(ptr noundef %48)
  %49 = load i64, ptr %3, align 8
  %50 = load ptr, ptr %2, align 8
  %51 = getelementptr inbounds nuw %struct.job_record, ptr %50, i32 0, i32 124
  store i64 %49, ptr %51, align 8
  %52 = load ptr, ptr %2, align 8
  %53 = getelementptr inbounds nuw %struct.job_record, ptr %52, i32 0, i32 126
  store i32 0, ptr %53, align 8
  %54 = load ptr, ptr %2, align 8
  %55 = getelementptr inbounds nuw %struct.job_record, ptr %54, i32 0, i32 125
  call void @slurm_xfree(ptr noundef %55)
  %56 = load i64, ptr %3, align 8
  %57 = load ptr, ptr %2, align 8
  %58 = getelementptr inbounds nuw %struct.job_record, ptr %57, i32 0, i32 132
  store i64 %56, ptr %58, align 8
  %59 = load ptr, ptr %2, align 8
  %60 = getelementptr inbounds nuw %struct.job_record, ptr %59, i32 0, i32 128
  %61 = load ptr, ptr %60, align 8
  %62 = icmp ne ptr %61, null
  br i1 %62, label %67, label %63

63:                                               ; preds = %44
  %64 = call ptr @list_create(ptr noundef @free_step_record)
  %65 = load ptr, ptr %2, align 8
  %66 = getelementptr inbounds nuw %struct.job_record, ptr %65, i32 0, i32 128
  store ptr %64, ptr %66, align 8
  br label %67

67:                                               ; preds = %63, %44
  %68 = load ptr, ptr %2, align 8
  %69 = call ptr @job_array_post_sched(ptr noundef %68, i1 noundef zeroext true)
  %70 = load ptr, ptr %2, align 8
  %71 = call i32 @bb_g_job_begin(ptr noundef %70)
  %72 = load ptr, ptr %2, align 8
  call void @job_array_start(ptr noundef %72)
  %73 = load ptr, ptr %2, align 8
  call void @rebuild_job_part_list(ptr noundef %73)
  %74 = load ptr, ptr %2, align 8
  %75 = getelementptr inbounds nuw %struct.job_record, ptr %74, i32 0, i32 68
  %76 = load i16, ptr %75, align 8
  %77 = zext i16 %76 to i64
  %78 = and i64 %77, 1
  %79 = icmp ne i64 %78, 0
  br i1 %79, label %80, label %92

80:                                               ; preds = %67
  %81 = load ptr, ptr %2, align 8
  %82 = getelementptr inbounds nuw %struct.job_record, ptr %81, i32 0, i32 68
  %83 = load i16, ptr %82, align 8
  %84 = zext i16 %83 to i64
  %85 = and i64 %84, 512
  %86 = icmp ne i64 %85, 0
  br i1 %86, label %90, label %87

87:                                               ; preds = %80
  %88 = load ptr, ptr %2, align 8
  %89 = call zeroext i1 @_first_array_task(ptr noundef %88)
  br i1 %89, label %90, label %92

90:                                               ; preds = %87, %80
  %91 = load ptr, ptr %2, align 8
  call void @mail_job_info(ptr noundef %91, i16 noundef zeroext 1)
  br label %92

92:                                               ; preds = %90, %87, %67
  %93 = load i32, ptr getelementptr inbounds nuw (%struct.diag_stats, ptr @slurmctld_diag_stats, i32 0, i32 10), align 4
  %94 = add i32 %93, 1
  store i32 %94, ptr getelementptr inbounds nuw (%struct.diag_stats, ptr @slurmctld_diag_stats, i32 0, i32 10), align 4
  %95 = load ptr, ptr %2, align 8
  call void @job_set_alloc_tres(ptr noundef %95, i1 noundef zeroext false)
  %96 = load ptr, ptr %2, align 8
  call void @acct_policy_job_begin(ptr noundef %96, i1 noundef zeroext false)
  %97 = load ptr, ptr @acct_db_conn, align 8
  %98 = load ptr, ptr %2, align 8
  %99 = call i32 @jobacct_storage_g_job_start(ptr noundef %97, ptr noundef %98)
  %100 = load ptr, ptr %2, align 8
  call void @prolog_slurmctld(ptr noundef %100)
  %101 = load i64, ptr %3, align 8
  %102 = load ptr, ptr %2, align 8
  %103 = getelementptr inbounds nuw %struct.job_record, ptr %102, i32 0, i32 32
  store i64 %101, ptr %103, align 8
  %104 = load ptr, ptr %2, align 8
  call void @job_state_set(ptr noundef %104, i32 noundef 3)
  %105 = load ptr, ptr %2, align 8
  call void @job_completion_logger(ptr noundef %105, i1 noundef zeroext false)
  %106 = load ptr, ptr %2, align 8
  call void @acct_policy_job_fini(ptr noundef %106, i1 noundef zeroext false)
  %107 = load ptr, ptr %2, align 8
  %108 = call i32 @select_g_job_fini(ptr noundef %107)
  %109 = icmp ne i32 %108, 0
  br i1 %109, label %110, label %113

110:                                              ; preds = %92
  %111 = load ptr, ptr %2, align 8
  %112 = call i32 (ptr, ...) @error(ptr noundef @.str.5, ptr noundef %111)
  br label %113

113:                                              ; preds = %110, %92
  %114 = load ptr, ptr %2, align 8
  call void @epilog_slurmctld(ptr noundef %114)
  call void @llvm.lifetime.end.p0(i64 8, ptr %3) #8
  ret void
}