; Function Attrs: nounwind uwtable
define internal fastcc void @_end_null_job(ptr noundef initializes((252, 256)) %0) unnamed_addr #0 {
  %2 = tail call i64 @time(ptr noundef null) #14
  %3 = getelementptr inbounds nuw i8, ptr %0, i64 252
  store i32 0, ptr %3, align 4
  %4 = getelementptr inbounds nuw i8, ptr %0, i64 296
  %5 = load ptr, ptr %4, align 8
  tail call void @gres_stepmgr_job_clear_alloc(ptr noundef %5) #14
  %6 = getelementptr inbounds nuw i8, ptr %0, i64 304
  %7 = load ptr, ptr %6, align 8
  tail call void @gres_stepmgr_job_clear_alloc(ptr noundef %7) #14
  %8 = getelementptr inbounds nuw i8, ptr %0, i64 312
  %9 = load ptr, ptr %8, align 8
  %.not = icmp eq ptr %9, null
  br i1 %.not, label %11, label %10

10:                                               ; preds = %1
  tail call void @list_destroy(ptr noundef nonnull %9) #14
  br label %11

11:                                               ; preds = %10, %1
  store ptr null, ptr %8, align 8
  tail call void @job_state_set(ptr noundef nonnull %0, i32 noundef 1) #14
  %12 = getelementptr inbounds nuw i8, ptr %0, i64 112
  %13 = load i64, ptr %12, align 8
  %14 = or i64 %13, 1048576
  store i64 %14, ptr %12, align 8
  %15 = getelementptr inbounds nuw i8, ptr %0, i64 584
  %16 = load ptr, ptr %15, align 8
  %.not40 = icmp eq ptr %16, null
  br i1 %.not40, label %18, label %17

17:                                               ; preds = %11
  tail call void @slurm_bit_free(ptr noundef nonnull %15) #14
  br label %18

18:                                               ; preds = %17, %11
  store ptr null, ptr %15, align 8
  %19 = getelementptr inbounds nuw i8, ptr %0, i64 568
  tail call void @slurm_xfree(ptr noundef nonnull %19) #14
  %20 = getelementptr inbounds nuw i8, ptr %0, i64 864
  tail call void @slurm_xfree(ptr noundef nonnull %20) #14
  %21 = getelementptr inbounds nuw i8, ptr %0, i64 912
  store i64 %2, ptr %21, align 8
  %22 = getelementptr inbounds nuw i8, ptr %0, i64 928
  store i32 0, ptr %22, align 8
  %23 = getelementptr inbounds nuw i8, ptr %0, i64 920
  tail call void @slurm_xfree(ptr noundef nonnull %23) #14
  %24 = getelementptr inbounds nuw i8, ptr %0, i64 968
  store i64 %2, ptr %24, align 8
  %25 = getelementptr inbounds nuw i8, ptr %0, i64 936
  %26 = load ptr, ptr %25, align 8
  %.not41 = icmp eq ptr %26, null
  br i1 %.not41, label %27, label %29

27:                                               ; preds = %18
  %28 = tail call ptr @list_create(ptr noundef nonnull @free_step_record) #14
  store ptr %28, ptr %25, align 8
  br label %29

29:                                               ; preds = %27, %18
  %30 = tail call ptr @job_array_post_sched(ptr noundef nonnull %0, i1 noundef zeroext true) #14
  %31 = tail call i32 @bb_g_job_begin(ptr noundef nonnull %0) #14
  tail call void @job_array_start(ptr noundef nonnull %0) #14
  tail call void @rebuild_job_part_list(ptr noundef nonnull %0) #14
  %32 = getelementptr inbounds nuw i8, ptr %0, i64 512
  %33 = load i16, ptr %32, align 8
  %34 = zext i16 %33 to i64
  %35 = and i64 %34, 1
  %.not42 = icmp eq i64 %35, 0
  br i1 %.not42, label %_first_array_task.exit, label %36

36:                                               ; preds = %29
  %37 = and i64 %34, 512
  %.not43 = icmp eq i64 %37, 0
  br i1 %.not43, label %38, label %_first_array_task.exit.thread

38:                                               ; preds = %36
  %39 = getelementptr inbounds nuw i8, ptr %0, i64 52
  %40 = load i32, ptr %39, align 4
  %41 = icmp eq i32 %40, -2
  br i1 %41, label %_first_array_task.exit.thread, label %42

42:                                               ; preds = %38
  %43 = getelementptr inbounds nuw i8, ptr %0, i64 48
  %44 = load i32, ptr %43, align 8
  %45 = tail call ptr @find_job_record(i32 noundef %44) #14
  %.not.i = icmp eq ptr %45, null
  br i1 %.not.i, label %49, label %46

46:                                               ; preds = %42
  %47 = getelementptr inbounds nuw i8, ptr %45, i64 56
  %48 = load ptr, ptr %47, align 8
  %.not10.i = icmp eq ptr %48, null
  br i1 %.not10.i, label %49, label %51

49:                                               ; preds = %46, %42
  %50 = tail call i32 (ptr, ...) @error(ptr noundef nonnull @.str.63, ptr noundef nonnull @__func__._first_array_task, ptr noundef nonnull %0) #14
  br label %_first_array_task.exit.thread

51:                                               ; preds = %46
  %52 = getelementptr inbounds nuw i8, ptr %48, i64 32
  %53 = load i32, ptr %52, align 8
  %54 = icmp eq i32 %53, 1
  br i1 %54, label %55, label %_first_array_task.exit

55:                                               ; preds = %51
  %56 = getelementptr inbounds nuw i8, ptr %48, i64 48
  %57 = load i32, ptr %56, align 8
  %58 = icmp eq i32 %57, 0
  br i1 %58, label %_first_array_task.exit.thread, label %_first_array_task.exit

_first_array_task.exit.thread:                    ; preds = %55, %38, %49, %36
  tail call void @mail_job_info(ptr noundef nonnull %0, i16 noundef zeroext 1) #14
  br label %_first_array_task.exit

_first_array_task.exit:                           ; preds = %55, %51, %_first_array_task.exit.thread, %29
  %59 = load i32, ptr getelementptr inbounds nuw (i8, ptr @slurmctld_diag_stats, i64 60), align 4
  %60 = add i32 %59, 1
  store i32 %60, ptr getelementptr inbounds nuw (i8, ptr @slurmctld_diag_stats, i64 60), align 4
  tail call void @job_set_alloc_tres(ptr noundef nonnull %0, i1 noundef zeroext false) #14
  tail call void @acct_policy_job_begin(ptr noundef nonnull %0, i1 noundef zeroext false) #14
  %61 = load ptr, ptr @acct_db_conn, align 8
  %62 = tail call i32 @jobacct_storage_g_job_start(ptr noundef %61, ptr noundef nonnull %0) #14
  tail call void @prolog_slurmctld(ptr noundef nonnull %0) #14
  %63 = getelementptr inbounds nuw i8, ptr %0, i64 232
  store i64 %2, ptr %63, align 8
  tail call void @job_state_set(ptr noundef nonnull %0, i32 noundef 3) #14
  tail call void @job_completion_logger(ptr noundef nonnull %0, i1 noundef zeroext false) #14
  tail call void @acct_policy_job_fini(ptr noundef nonnull %0, i1 noundef zeroext false) #14
  %64 = tail call i32 @select_g_job_fini(ptr noundef nonnull %0) #14
  %.not44 = icmp eq i32 %64, 0
  br i1 %.not44, label %67, label %65

65:                                               ; preds = %_first_array_task.exit
  %66 = tail call i32 (ptr, ...) @error(ptr noundef nonnull @.str.5, ptr noundef nonnull %0) #14
  br label %67

67:                                               ; preds = %65, %_first_array_task.exit
  tail call void @epilog_slurmctld(ptr noundef nonnull %0) #14
  ret void
}